; Function Attrs: mustprogress uwtable
define void @_ZN32pxrInternal_v0_24__pxrReserved__29GeomUtilCylinderMeshGenerator16GenerateTopologyEmb(ptr dead_on_unwind noalias writable sret(%"class.pxrInternal_v0_24__pxrReserved__::PxOsdMeshTopology") align 8 %0, i64 noundef %1, i1 noundef zeroext %2) local_unnamed_addr #0 align 2 {
  %4 = icmp ult i64 %1, 3
  br i1 %4, label %5, label %6

5:                                                ; preds = %3
  tail call void @_ZN32pxrInternal_v0_24__pxrReserved__17PxOsdMeshTopologyC1Ev(ptr noundef nonnull align 8 dereferenceable(369) %0)
  br label %7

6:                                                ; preds = %3
  tail call void @_ZN32pxrInternal_v0_24__pxrReserved__25GeomUtilMeshGeneratorBase27_GenerateCappedQuadTopologyEmmNS0_9_CapStyleES1_b(ptr dead_on_unwind writable sret(%"class.pxrInternal_v0_24__pxrReserved__::PxOsdMeshTopology") align 8 %0, i64 noundef %1, i64 noundef 1, i32 noundef 2, i32 noundef 2, i1 noundef zeroext %2)
  br label %7

7:                                                ; preds = %6, %5
  ret void
}